target datalayout = "e-m:e-p270:32:32-p271:32:32-p272:64:64-i64:64-i128:128-f80:128-n8:16:32:64-S128"
target triple = "x86_64-pc-linux-gnu"

%struct.qtest_fault = type { ptr, %struct.quic_pkt_hdr_st, %struct.ossl_qtx_iovec_st, i64, ptr, ptr, ptr, i64, i64, ptr, ptr, ptr, ptr, ptr, ptr, ptr, ptr, %struct.bio_msg_st, i64, %struct.noise_args_data_st }
%struct.quic_pkt_hdr_st = type { i32, i32, %struct.quic_conn_id_st, %struct.quic_conn_id_st, [4 x i8], ptr, i64, i64, ptr }
%struct.quic_conn_id_st = type { i8, [20 x i8] }
%struct.ossl_qtx_iovec_st = type { ptr, i64 }
%struct.bio_msg_st = type { ptr, i64, ptr, ptr, i64 }
%struct.noise_args_data_st = type { ptr, ptr, ptr, i32 }

@.str = private unnamed_addr constant [38 x i8] c"../openssl/test/helpers/quictestlib.c\00", align 1

; Function Attrs: nounwind uwtable
define internal void @handshake_finish(ptr noundef %0) #0 {
  %2 = alloca ptr, align 8
  %3 = alloca ptr, align 8
  store ptr %0, ptr %2, align 8, !tbaa !56
  call void @llvm.lifetime.start.p0(i64 8, ptr %3) #8
  %4 = load ptr, ptr %2, align 8, !tbaa !56
  store ptr %4, ptr %3, align 8, !tbaa !33
  %5 = load ptr, ptr %3, align 8, !tbaa !33
  %6 = getelementptr inbounds nuw %struct.qtest_fault, ptr %5, i32 0, i32 6
  %7 = load ptr, ptr %6, align 8, !tbaa !90
  call void @CRYPTO_free(ptr noundef %7, ptr noundef @.str, i32 noundef 929)
  %8 = load ptr, ptr %3, align 8, !tbaa !33
  %9 = getelementptr inbounds nuw %struct.qtest_fault, ptr %8, i32 0, i32 6
  store ptr null, ptr %9, align 8, !tbaa !90
  call void @llvm.lifetime.end.p0(i64 8, ptr %3) #8
  ret void
}

; Function Attrs: nounwind uwtable
define internal void @packet_plain_finish(ptr noundef %0) #0 {
  %2 = alloca ptr, align 8
  %3 = alloca ptr, align 8
  store ptr %0, ptr %2, align 8, !tbaa !56
  call void @llvm.lifetime.start.p0(i64 8, ptr %3) #8
  %4 = load ptr, ptr %2, align 8, !tbaa !56
  store ptr %4, ptr %3, align 8, !tbaa !33
  %5 = load ptr, ptr %3, align 8, !tbaa !33
  %6 = getelementptr inbounds nuw %struct.qtest_fault, ptr %5, i32 0, i32 2
  %7 = getelementptr inbounds nuw %struct.ossl_qtx_iovec_st, ptr %6, i32 0, i32 0
  %8 = load ptr, ptr %7, align 8, !tbaa !87
  call void @CRYPTO_free(ptr noundef %8, ptr noundef @.str, i32 noundef 782)
  %9 = load ptr, ptr %3, align 8, !tbaa !33
  %10 = getelementptr inbounds nuw %struct.qtest_fault, ptr %9, i32 0, i32 2
  %11 = getelementptr inbounds nuw %struct.ossl_qtx_iovec_st, ptr %10, i32 0, i32 1
  store i64 0, ptr %11, align 8, !tbaa !88
  %12 = load ptr, ptr %3, align 8, !tbaa !33
  %13 = getelementptr inbounds nuw %struct.qtest_fault, ptr %12, i32 0, i32 3
  store i64 0, ptr %13, align 8, !tbaa !89
  %14 = load ptr, ptr %3, align 8, !tbaa !33
  %15 = getelementptr inbounds nuw %struct.qtest_fault, ptr %14, i32 0, i32 2
  %16 = getelementptr inbounds nuw %struct.ossl_qtx_iovec_st, ptr %15, i32 0, i32 0
  store ptr null, ptr %16, align 8, !tbaa !87
  call void @llvm.lifetime.end.p0(i64 8, ptr %3) #8
  ret void
}

; Function Attrs: nounwind uwtable
define dso_local void @qtest_fault_free(ptr noundef %0) #0 {
  %2 = alloca ptr, align 8
  store ptr %0, ptr %2, align 8, !tbaa !33
  %3 = load ptr, ptr %2, align 8, !tbaa !33
  %4 = icmp eq ptr %3, null
  br i1 %4, label %5, label %6

5:                                                ; preds = %1
  br label %10

6:                                                ; preds = %1
  %7 = load ptr, ptr %2, align 8, !tbaa !33
  call void @packet_plain_finish(ptr noundef %7)
  %8 = load ptr, ptr %2, align 8, !tbaa !33
  call void @handshake_finish(ptr noundef %8)
  %9 = load ptr, ptr %2, align 8, !tbaa !33
  call void @CRYPTO_free(ptr noundef %9, ptr noundef @.str, i32 noundef 722)
  br label %10

10:                                               ; preds = %6, %5
  ret void
}